; Function Attrs: mustprogress uwtable
define hidden noundef zeroext i1 @_ZNK4cvc58internal8rewriter16RewriteProofRule12isFixedPointEv(ptr noundef nonnull readonly align 8 captures(none) dereferenceable(344) %0) local_unnamed_addr #3 align 2 personality ptr @__gxx_personality_v0 {
  %2 = getelementptr inbounds nuw i8, ptr %0, i64 40
  %3 = load ptr, ptr @_ZN4cvc58internal12NodeTemplateILb1EE6s_nullE, align 8, !tbaa !40, !noalias !131
  %4 = load i64, ptr %3, align 8, !noalias !131
  %5 = lshr i64 %4, 40
  %6 = trunc nuw nsw i64 %5 to i32
  %7 = and i32 %6, 1048575
  %8 = icmp samesign ult i32 %7, 1048574
  br i1 %8, label %9, label %14, !prof !56

9:                                                ; preds = %1
  %10 = add i64 %4, 1099511627776
  %11 = and i64 %10, 1152920405095219200
  %12 = and i64 %4, -1152920405095219201
  %13 = or disjoint i64 %11, %12
  store i64 %13, ptr %3, align 8, !noalias !131
  br label %_ZN4cvc58internal12NodeTemplateILb1EE4nullEv.exit

14:                                               ; preds = %1
  %15 = icmp eq i32 %7, 1048574
  br i1 %15, label %16, label %_ZN4cvc58internal12NodeTemplateILb1EE4nullEv.exit, !prof !51

16:                                               ; preds = %14
  %17 = or i64 %4, 1152920405095219200
  store i64 %17, ptr %3, align 8, !noalias !131
  tail call void @_ZN4cvc58internal4expr9NodeValue20markRefCountMaxedOutEv(ptr noundef nonnull align 8 dereferenceable(24) %3), !noalias !131
  %.pre = load i64, ptr %3, align 8
  br label %_ZN4cvc58internal12NodeTemplateILb1EE4nullEv.exit

_ZN4cvc58internal12NodeTemplateILb1EE4nullEv.exit: ; preds = %9, %14, %16
  %18 = phi i64 [ %13, %9 ], [ %4, %14 ], [ %.pre, %16 ]
  %19 = load ptr, ptr %2, align 8, !tbaa !40
  %20 = and i64 %18, 1152920405095219200
  %.not.i.i = icmp eq i64 %20, 1152920405095219200
  br i1 %.not.i.i, label %_ZN4cvc58internal12NodeTemplateILb1EED2Ev.exit, label %21, !prof !51

21:                                               ; preds = %_ZN4cvc58internal12NodeTemplateILb1EE4nullEv.exit
  %22 = add i64 %18, 1152920405095219200
  %23 = and i64 %22, 1152920405095219200
  %24 = and i64 %18, -1152920405095219201
  %25 = or disjoint i64 %23, %24
  store i64 %25, ptr %3, align 8
  %26 = icmp eq i64 %23, 0
  br i1 %26, label %27, label %_ZN4cvc58internal12NodeTemplateILb1EED2Ev.exit, !prof !51

27:                                               ; preds = %21
  invoke void @_ZN4cvc58internal4expr9NodeValue15markForDeletionEv(ptr noundef nonnull align 8 dereferenceable(24) %3)
          to label %_ZN4cvc58internal12NodeTemplateILb1EED2Ev.exit unwind label %28

28:                                               ; preds = %27
  %29 = landingpad { ptr, i32 }
          catch ptr null
  %30 = extractvalue { ptr, i32 } %29, 0
  tail call void @__clang_call_terminate(ptr %30) #26
  unreachable

_ZN4cvc58internal12NodeTemplateILb1EED2Ev.exit:   ; preds = %_ZN4cvc58internal12NodeTemplateILb1EE4nullEv.exit, %21, %27
  %31 = icmp ne ptr %19, %3
  ret i1 %31
}